(lp0
S'Abbie_Cornish'
p1
aS'A.J._Buckley'
p2
aS'Aamir_Khan'
p3
aS'Adam_Driver'
p4
aS'Adam_Baldwin'
p5
aS'Adam_Buxton'
p6
aS'Abigail_Spencer'
p7
aS'Abraham_Benrubi'
p8
aS'Adam_Brody'
p9
aS'Adam_Copeland'
p10
aS'Abigail_Klein'
p11
aS'Abigail_Breslin'
p12
aS'Adam_Beach'
p13
aS'A_P_J_Abdul_Kalam'
p14
aS'Aaron_Yoo'
p15
aS'Abel_Ferrara'
p16
aS'A.R._Rahman'
p17
aS'Aaron_Staton'
p18
aS'Adam_G._Sevani'
p19
aS'Aaron_Tveit'
p20
a.